target datalayout = "e-m:e-p270:32:32-p271:32:32-p272:64:64-i64:64-i128:128-f80:128-n8:16:32:64-S128"
target triple = "x86_64-pc-linux-gnu"

%class.ZMarkStripe = type { %class.ZStackList, %class.ZStackList }
%class.ZStackList = type { i64, ptr, [48 x i8] }
%class.ZMarkStripeSet = type { i64, [56 x i8], [16 x %class.ZMarkStripe] }
%"struct.Atomic::LoadImpl.4" = type { i8 }
%"struct.Atomic::PlatformLoad.5" = type { i8 }

; Function Attrs: mustprogress nounwind uwtable
define linkonce_odr hidden noundef i64 @_ZNK6Atomic12PlatformLoadILm8EEclImEET_PVKS3_(ptr noundef nonnull align 1 dereferenceable(1) %0, ptr noundef %1) #1 comdat align 2 {
  %3 = alloca ptr, align 8
  %4 = alloca ptr, align 8
  store ptr %0, ptr %3, align 8
  store ptr %1, ptr %4, align 8
  %5 = load ptr, ptr %4, align 8
  %6 = load volatile i64, ptr %5, align 8
  ret i64 %6
}

; Function Attrs: mustprogress nounwind uwtable
define linkonce_odr hidden noundef i64 @_ZNK6Atomic8LoadImplImNS_12PlatformLoadILm8EEEvEclEPVKm(ptr noundef nonnull align 1 dereferenceable(1) %0, ptr noundef %1) #1 comdat align 2 {
  %3 = alloca ptr, align 8
  %4 = alloca ptr, align 8
  %5 = alloca %"struct.Atomic::PlatformLoad.5", align 1
  store ptr %0, ptr %3, align 8
  store ptr %1, ptr %4, align 8
  %6 = load ptr, ptr %4, align 8
  %7 = call noundef i64 @_ZNK6Atomic12PlatformLoadILm8EEclImEET_PVKS3_(ptr noundef nonnull align 1 dereferenceable(1) %5, ptr noundef %6)
  ret i64 %7
}

; Function Attrs: mustprogress nounwind uwtable
define linkonce_odr hidden noundef i64 @_ZN6Atomic4loadImEET_PVKS1_(ptr noundef %0) #1 comdat align 2 {
  %2 = alloca ptr, align 8
  %3 = alloca %"struct.Atomic::LoadImpl.4", align 1
  store ptr %0, ptr %2, align 8
  %4 = load ptr, ptr %2, align 8
  %5 = call noundef i64 @_ZNK6Atomic8LoadImplImNS_12PlatformLoadILm8EEEvEclEPVKm(ptr noundef nonnull align 1 dereferenceable(1) %3, ptr noundef %4)
  ret i64 %5
}

; Function Attrs: mustprogress nounwind uwtable
define hidden noundef ptr @_ZN14ZMarkStripeSet17stripe_for_workerEjj(ptr noundef nonnull align 64 dereferenceable(2112) %0, i32 noundef %1, i32 noundef %2) #1 align 2 {
  %4 = alloca ptr, align 8
  %5 = alloca i32, align 4
  %6 = alloca i32, align 4
  %7 = alloca i64, align 8
  %8 = alloca i64, align 8
  %9 = alloca i64, align 8
  %10 = alloca i64, align 8
  %11 = alloca i64, align 8
  %12 = alloca i64, align 8
  %13 = alloca double, align 8
  store ptr %0, ptr %4, align 8
  store i32 %1, ptr %5, align 4
  store i32 %2, ptr %6, align 4
  %14 = load ptr, ptr %4, align 8
  %15 = getelementptr inbounds %class.ZMarkStripeSet, ptr %14, i32 0, i32 0
  %16 = call noundef i64 @_ZN6Atomic4loadImEET_PVKS1_(ptr noundef %15)
  store i64 %16, ptr %7, align 8
  %17 = load i64, ptr %7, align 8
  %18 = add i64 %17, 1
  store i64 %18, ptr %8, align 8
  %19 = load i32, ptr %5, align 4
  %20 = zext i32 %19 to i64
  %21 = load i64, ptr %8, align 8
  %22 = udiv i64 %20, %21
  %23 = load i64, ptr %8, align 8
  %24 = mul i64 %22, %23
  store i64 %24, ptr %9, align 8
  %25 = load i32, ptr %6, align 4
  %26 = zext i32 %25 to i64
  %27 = load i64, ptr %9, align 8
  %28 = icmp ult i64 %26, %27
  br i1 %28, label %29, label %34

29:                                               ; preds = %3
  %30 = load i32, ptr %6, align 4
  %31 = zext i32 %30 to i64
  %32 = load i64, ptr %7, align 8
  %33 = and i64 %31, %32
  store i64 %33, ptr %10, align 8
  br label %53

34:                                               ; preds = %3
  %35 = load i32, ptr %5, align 4
  %36 = zext i32 %35 to i64
  %37 = load i64, ptr %9, align 8
  %38 = sub i64 %36, %37
  store i64 %38, ptr %11, align 8
  %39 = load i32, ptr %6, align 4
  %40 = zext i32 %39 to i64
  %41 = load i64, ptr %9, align 8
  %42 = sub i64 %40, %41
  store i64 %42, ptr %12, align 8
  %43 = load i64, ptr %8, align 8
  %44 = uitofp i64 %43 to double
  %45 = load i64, ptr %11, align 8
  %46 = uitofp i64 %45 to double
  %47 = fdiv double %44, %46
  store double %47, ptr %13, align 8
  %48 = load i64, ptr %12, align 8
  %49 = uitofp i64 %48 to double
  %50 = load double, ptr %13, align 8
  %51 = fmul double %49, %50
  %52 = fptoui double %51 to i64
  store i64 %52, ptr %10, align 8
  br label %53

53:                                               ; preds = %34, %29
  %54 = getelementptr inbounds %class.ZMarkStripeSet, ptr %14, i32 0, i32 2
  %55 = load i64, ptr %10, align 8
  %56 = getelementptr inbounds [16 x %class.ZMarkStripe], ptr %54, i64 0, i64 %55
  ret ptr %56
}