; Function Attrs: mustprogress nofree norecurse nounwind willreturn memory(argmem: readwrite, inaccessiblemem: readwrite) uwtable
define hidden noundef nonnull ptr @_ZN14ZMarkStripeSet17stripe_for_workerEjj(ptr noundef nonnull align 64 dereferenceable(2112) %0, i32 noundef %1, i32 noundef %2) local_unnamed_addr #3 align 2 {
  %4 = load volatile i64, ptr %0, align 64
  %5 = add i64 %4, 1
  %6 = zext i32 %1 to i64
  %7 = urem i64 %6, %5
  %8 = sub nuw nsw i64 %6, %7
  %9 = zext i32 %2 to i64
  %10 = icmp ugt i64 %8, %9
  br i1 %10, label %11, label %13

11:                                               ; preds = %3
  %12 = and i64 %4, %9
  br label %21

13:                                               ; preds = %3
  %14 = sub nsw i64 %9, %8
  %15 = uitofp i64 %5 to double
  %16 = uitofp nneg i64 %7 to double
  %17 = fdiv double %15, %16
  %18 = uitofp i64 %14 to double
  %19 = fmul double %17, %18
  %20 = fptoui double %19 to i64
  br label %21

21:                                               ; preds = %13, %11
  %.0 = phi i64 [ %12, %11 ], [ %20, %13 ]
  %22 = getelementptr inbounds i8, ptr %0, i64 64
  %23 = getelementptr inbounds [16 x %class.ZMarkStripe], ptr %22, i64 0, i64 %.0
  ret ptr %23
}